(dp1
S'username'
p2
S'CHAR(128) UNIQUE'
p3
sS'registration_id'
p4
S'CHAR(512)'
p5
sS'registration_key'
p6
S'CHAR(512)'
p7
sS'name'
p8
S'CHAR(128)'
p9
sS'id'
p10
S'INTEGER PRIMARY KEY AUTOINCREMENT'
p11
sS'reset_password_key'
p12
S'CHAR(512)'
p13
sS'password'
p14
S'CHAR(512)'
p15
sS'email'
p16
S'CHAR(128)'
p17
s.